target datalayout = "e-m:e-p270:32:32-p271:32:32-p272:64:64-i64:64-i128:128-f80:128-n8:16:32:64-S128"
target triple = "x86_64-pc-linux-gnu"

%struct.Agobj_s = type { %struct.Agtag_s, ptr }
%struct.Agtag_s = type { i32, i64 }
%struct.Agraphinfo_t = type { %struct.Agrec_s, ptr, ptr, %struct.boxf, [4 x %struct.pointf_s], i8, i8, i8, i8, i32, double, double, i16, ptr, ptr, ptr, ptr, i32, ptr, ptr, ptr, ptr, i16, i16, i32, ptr, ptr, ptr, ptr, ptr, i32, ptr, ptr, %struct.nlist_t, ptr, ptr, i32, i32, i8, i8, i32, i32, i32, ptr, ptr, ptr, ptr, i8, i8, i8, i8, i8 }
%struct.Agrec_s = type { ptr, ptr }
%struct.boxf = type { %struct.pointf_s, %struct.pointf_s }
%struct.pointf_s = type { double, double }
%struct.nlist_t = type { ptr, i64 }
%struct.Agnodeinfo_t = type { %struct.Agrec_s, ptr, ptr, %struct.pointf_s, double, double, %struct.boxf, double, double, double, double, double, ptr, ptr, ptr, i8, i8, i8, i8, i32, i32, i32, ptr, double, i8, i8, ptr, ptr, i8, i64, i8, i8, i8, ptr, ptr, %struct.elist, %struct.elist, %struct.elist, %struct.elist, %struct.elist, ptr, i32, ptr, i32, i32, double, %struct.elist, %struct.elist, %struct.elist, %struct.elist, ptr, i32, i32, i32, [1 x double] }
%struct.elist = type { ptr, i64 }
%struct.rank_t = type { i32, ptr, i32, ptr, double, double, double, double, i8, i8, i64, ptr }

@stderr = external global ptr, align 8
@.str.6 = private unnamed_addr constant [6 x i8] c"phase\00", align 1
@Verbose = external global i8, align 1
@.str.7 = private unnamed_addr constant [29 x i8] c"Starting phase 1 [dot_rank]\0A\00", align 1
@.str.8 = private unnamed_addr constant [33 x i8] c"Starting phase 2 [dot_mincross]\0A\00", align 1
@.str.9 = private unnamed_addr constant [33 x i8] c"Starting phase 3 [dot_position]\0A\00", align 1
@.str.10 = private unnamed_addr constant [9 x i8] c"compound\00", align 1
@.str.14 = private unnamed_addr constant [10 x i8] c"_new_rank\00", align 1

; Function Attrs: nounwind uwtable
define internal void @remove_from_rank(ptr noundef %0, ptr noundef %1) #0 {
  %3 = alloca ptr, align 8
  %4 = alloca ptr, align 8
  %5 = alloca ptr, align 8
  %6 = alloca i32, align 4
  %7 = alloca i32, align 4
  store ptr %0, ptr %3, align 8, !tbaa !3
  store ptr %1, ptr %4, align 8, !tbaa !8
  call void @llvm.lifetime.start.p0(i64 8, ptr %5) #12
  store ptr null, ptr %5, align 8, !tbaa !8
  call void @llvm.lifetime.start.p0(i64 4, ptr %6) #12
  call void @llvm.lifetime.start.p0(i64 4, ptr %7) #12
  %8 = load ptr, ptr %4, align 8, !tbaa !8
  %9 = getelementptr inbounds nuw %struct.Agobj_s, ptr %8, i32 0, i32 1
  %10 = load ptr, ptr %9, align 8, !tbaa !16
  %11 = getelementptr inbounds nuw %struct.Agnodeinfo_t, ptr %10, i32 0, i32 43
  %12 = load i32, ptr %11, align 8, !tbaa !147
  store i32 %12, ptr %7, align 4, !tbaa !72
  store i32 0, ptr %6, align 4, !tbaa !72
  br label %13

13:                                               ; preds = %105, %2
  %14 = load i32, ptr %6, align 4, !tbaa !72
  %15 = load ptr, ptr %3, align 8, !tbaa !3
  %16 = getelementptr inbounds nuw %struct.Agobj_s, ptr %15, i32 0, i32 1
  %17 = load ptr, ptr %16, align 8, !tbaa !16
  %18 = getelementptr inbounds nuw %struct.Agraphinfo_t, ptr %17, i32 0, i32 28
  %19 = load ptr, ptr %18, align 8, !tbaa !98
  %20 = load i32, ptr %7, align 4, !tbaa !72
  %21 = sext i32 %20 to i64
  %22 = getelementptr inbounds %struct.rank_t, ptr %19, i64 %21
  %23 = getelementptr inbounds nuw %struct.rank_t, ptr %22, i32 0, i32 0
  %24 = load i32, ptr %23, align 8, !tbaa !156
  %25 = icmp slt i32 %14, %24
  br i1 %25, label %26, label %108

26:                                               ; preds = %13
  %27 = load ptr, ptr %3, align 8, !tbaa !3
  %28 = getelementptr inbounds nuw %struct.Agobj_s, ptr %27, i32 0, i32 1
  %29 = load ptr, ptr %28, align 8, !tbaa !16
  %30 = getelementptr inbounds nuw %struct.Agraphinfo_t, ptr %29, i32 0, i32 28
  %31 = load ptr, ptr %30, align 8, !tbaa !98
  %32 = load i32, ptr %7, align 4, !tbaa !72
  %33 = sext i32 %32 to i64
  %34 = getelementptr inbounds %struct.rank_t, ptr %31, i64 %33
  %35 = getelementptr inbounds nuw %struct.rank_t, ptr %34, i32 0, i32 1
  %36 = load ptr, ptr %35, align 8, !tbaa !157
  %37 = load i32, ptr %6, align 4, !tbaa !72
  %38 = sext i32 %37 to i64
  %39 = getelementptr inbounds ptr, ptr %36, i64 %38
  %40 = load ptr, ptr %39, align 8, !tbaa !8
  store ptr %40, ptr %5, align 8, !tbaa !8
  %41 = load ptr, ptr %5, align 8, !tbaa !8
  %42 = load ptr, ptr %4, align 8, !tbaa !8
  %43 = icmp eq ptr %41, %42
  br i1 %43, label %44, label %104

44:                                               ; preds = %26
  %45 = load i32, ptr %6, align 4, !tbaa !72
  %46 = add nsw i32 %45, 1
  store i32 %46, ptr %6, align 4, !tbaa !72
  br label %47

47:                                               ; preds = %89, %44
  %48 = load i32, ptr %6, align 4, !tbaa !72
  %49 = load ptr, ptr %3, align 8, !tbaa !3
  %50 = getelementptr inbounds nuw %struct.Agobj_s, ptr %49, i32 0, i32 1
  %51 = load ptr, ptr %50, align 8, !tbaa !16
  %52 = getelementptr inbounds nuw %struct.Agraphinfo_t, ptr %51, i32 0, i32 28
  %53 = load ptr, ptr %52, align 8, !tbaa !98
  %54 = load i32, ptr %7, align 4, !tbaa !72
  %55 = sext i32 %54 to i64
  %56 = getelementptr inbounds %struct.rank_t, ptr %53, i64 %55
  %57 = getelementptr inbounds nuw %struct.rank_t, ptr %56, i32 0, i32 0
  %58 = load i32, ptr %57, align 8, !tbaa !156
  %59 = icmp slt i32 %48, %58
  br i1 %59, label %60, label %92

60:                                               ; preds = %47
  %61 = load ptr, ptr %3, align 8, !tbaa !3
  %62 = getelementptr inbounds nuw %struct.Agobj_s, ptr %61, i32 0, i32 1
  %63 = load ptr, ptr %62, align 8, !tbaa !16
  %64 = getelementptr inbounds nuw %struct.Agraphinfo_t, ptr %63, i32 0, i32 28
  %65 = load ptr, ptr %64, align 8, !tbaa !98
  %66 = load i32, ptr %7, align 4, !tbaa !72
  %67 = sext i32 %66 to i64
  %68 = getelementptr inbounds %struct.rank_t, ptr %65, i64 %67
  %69 = getelementptr inbounds nuw %struct.rank_t, ptr %68, i32 0, i32 1
  %70 = load ptr, ptr %69, align 8, !tbaa !157
  %71 = load i32, ptr %6, align 4, !tbaa !72
  %72 = sext i32 %71 to i64
  %73 = getelementptr inbounds ptr, ptr %70, i64 %72
  %74 = load ptr, ptr %73, align 8, !tbaa !8
  %75 = load ptr, ptr %3, align 8, !tbaa !3
  %76 = getelementptr inbounds nuw %struct.Agobj_s, ptr %75, i32 0, i32 1
  %77 = load ptr, ptr %76, align 8, !tbaa !16
  %78 = getelementptr inbounds nuw %struct.Agraphinfo_t, ptr %77, i32 0, i32 28
  %79 = load ptr, ptr %78, align 8, !tbaa !98
  %80 = load i32, ptr %7, align 4, !tbaa !72
  %81 = sext i32 %80 to i64
  %82 = getelementptr inbounds %struct.rank_t, ptr %79, i64 %81
  %83 = getelementptr inbounds nuw %struct.rank_t, ptr %82, i32 0, i32 1
  %84 = load ptr, ptr %83, align 8, !tbaa !157
  %85 = load i32, ptr %6, align 4, !tbaa !72
  %86 = sub nsw i32 %85, 1
  %87 = sext i32 %86 to i64
  %88 = getelementptr inbounds ptr, ptr %84, i64 %87
  store ptr %74, ptr %88, align 8, !tbaa !8
  br label %89

89:                                               ; preds = %60
  %90 = load i32, ptr %6, align 4, !tbaa !72
  %91 = add nsw i32 %90, 1
  store i32 %91, ptr %6, align 4, !tbaa !72
  br label %47, !llvm.loop !158

92:                                               ; preds = %47
  %93 = load ptr, ptr %3, align 8, !tbaa !3
  %94 = getelementptr inbounds nuw %struct.Agobj_s, ptr %93, i32 0, i32 1
  %95 = load ptr, ptr %94, align 8, !tbaa !16
  %96 = getelementptr inbounds nuw %struct.Agraphinfo_t, ptr %95, i32 0, i32 28
  %97 = load ptr, ptr %96, align 8, !tbaa !98
  %98 = load i32, ptr %7, align 4, !tbaa !72
  %99 = sext i32 %98 to i64
  %100 = getelementptr inbounds %struct.rank_t, ptr %97, i64 %99
  %101 = getelementptr inbounds nuw %struct.rank_t, ptr %100, i32 0, i32 0
  %102 = load i32, ptr %101, align 8, !tbaa !156
  %103 = add nsw i32 %102, -1
  store i32 %103, ptr %101, align 8, !tbaa !156
  br label %108

104:                                              ; preds = %26
  br label %105

105:                                              ; preds = %104
  %106 = load i32, ptr %6, align 4, !tbaa !72
  %107 = add nsw i32 %106, 1
  store i32 %107, ptr %6, align 4, !tbaa !72
  br label %13, !llvm.loop !159

108:                                              ; preds = %92, %13
  call void @llvm.lifetime.end.p0(i64 4, ptr %7) #12
  call void @llvm.lifetime.end.p0(i64 4, ptr %6) #12
  call void @llvm.lifetime.end.p0(i64 8, ptr %5) #12
  ret void
}

; Function Attrs: nounwind uwtable
define internal void @removeFill(ptr noundef %0) #0 {
  %2 = alloca ptr, align 8
  %3 = alloca ptr, align 8
  %4 = alloca ptr, align 8
  %5 = alloca ptr, align 8
  %6 = alloca i32, align 4
  store ptr %0, ptr %2, align 8, !tbaa !3
  call void @llvm.lifetime.start.p0(i64 8, ptr %3) #12
  call void @llvm.lifetime.start.p0(i64 8, ptr %4) #12
  call void @llvm.lifetime.start.p0(i64 8, ptr %5) #12
  %7 = load ptr, ptr %2, align 8, !tbaa !3
  %8 = call ptr @agsubg(ptr noundef %7, ptr noundef @.str.14, i32 noundef 0)
  store ptr %8, ptr %5, align 8, !tbaa !3
  %9 = load ptr, ptr %5, align 8, !tbaa !3
  %10 = icmp ne ptr %9, null
  br i1 %10, label %12, label %11

11:                                               ; preds = %1
  store i32 1, ptr %6, align 4
  br label %36

12:                                               ; preds = %1
  %13 = load ptr, ptr %5, align 8, !tbaa !3
  %14 = call ptr @agfstnode(ptr noundef %13)
  store ptr %14, ptr %3, align 8, !tbaa !8
  br label %15

15:                                               ; preds = %30, %12
  %16 = load ptr, ptr %3, align 8, !tbaa !8
  %17 = icmp ne ptr %16, null
  br i1 %17, label %18, label %32

18:                                               ; preds = %15
  %19 = load ptr, ptr %5, align 8, !tbaa !3
  %20 = load ptr, ptr %3, align 8, !tbaa !8
  %21 = call ptr @agnxtnode(ptr noundef %19, ptr noundef %20)
  store ptr %21, ptr %4, align 8, !tbaa !8
  %22 = load ptr, ptr %2, align 8, !tbaa !3
  %23 = load ptr, ptr %3, align 8, !tbaa !8
  call void @delete_fast_node(ptr noundef %22, ptr noundef %23)
  %24 = load ptr, ptr %2, align 8, !tbaa !3
  %25 = load ptr, ptr %3, align 8, !tbaa !8
  call void @remove_from_rank(ptr noundef %24, ptr noundef %25)
  %26 = load ptr, ptr %3, align 8, !tbaa !8
  call void @dot_cleanup_node(ptr noundef %26)
  %27 = load ptr, ptr %2, align 8, !tbaa !3
  %28 = load ptr, ptr %3, align 8, !tbaa !8
  %29 = call i32 @agdelnode(ptr noundef %27, ptr noundef %28)
  br label %30

30:                                               ; preds = %18
  %31 = load ptr, ptr %4, align 8, !tbaa !8
  store ptr %31, ptr %3, align 8, !tbaa !8
  br label %15, !llvm.loop !150

32:                                               ; preds = %15
  %33 = load ptr, ptr %2, align 8, !tbaa !3
  %34 = load ptr, ptr %5, align 8, !tbaa !3
  %35 = call i32 @agdelsubg(ptr noundef %33, ptr noundef %34)
  store i32 0, ptr %6, align 4
  br label %36

36:                                               ; preds = %32, %11
  call void @llvm.lifetime.end.p0(i64 8, ptr %5) #12
  call void @llvm.lifetime.end.p0(i64 8, ptr %4) #12
  call void @llvm.lifetime.end.p0(i64 8, ptr %3) #12
  %37 = load i32, ptr %6, align 4
  switch i32 %37, label %39 [
    i32 0, label %38
    i32 1, label %38
  ]

38:                                               ; preds = %36, %36
  ret void

39:                                               ; preds = %36
  unreachable
}

; Function Attrs: nounwind uwtable
define internal void @dotLayout(ptr noundef %0) #0 {
  %2 = alloca ptr, align 8
  %3 = alloca i32, align 4
  %4 = alloca i32, align 4
  store ptr %0, ptr %2, align 8, !tbaa !3
  call void @llvm.lifetime.start.p0(i64 4, ptr %3) #12
  %5 = load ptr, ptr %2, align 8, !tbaa !3
  %6 = load ptr, ptr %2, align 8, !tbaa !3
  %7 = call ptr @agattr(ptr noundef %6, i32 noundef 0, ptr noundef @.str.6, ptr noundef null)
  %8 = call i32 @late_int(ptr noundef %5, ptr noundef %7, i32 noundef -1, i32 noundef 1)
  store i32 %8, ptr %3, align 4, !tbaa !72
  %9 = load ptr, ptr %2, align 8, !tbaa !3
  call void @setEdgeType(ptr noundef %9, i32 noundef 10)
  %10 = load ptr, ptr %2, align 8, !tbaa !3
  call void @setAspect(ptr noundef %10)
  %11 = load ptr, ptr %2, align 8, !tbaa !3
  %12 = load ptr, ptr %2, align 8, !tbaa !3
  call void @dot_init_subg(ptr noundef %11, ptr noundef %12)
  %13 = load ptr, ptr %2, align 8, !tbaa !3
  call void @dot_init_node_edge(ptr noundef %13)
  %14 = load i8, ptr @Verbose, align 1, !tbaa !71
  %15 = icmp ne i8 %14, 0
  br i1 %15, label %16, label %19

16:                                               ; preds = %1
  %17 = load ptr, ptr @stderr, align 8, !tbaa !122
  %18 = call i32 @fputs(ptr noundef @.str.7, ptr noundef %17)
  br label %19

19:                                               ; preds = %16, %1
  %20 = load ptr, ptr %2, align 8, !tbaa !3
  call void @dot_rank(ptr noundef %20)
  %21 = load i32, ptr %3, align 4, !tbaa !72
  %22 = icmp eq i32 %21, 1
  br i1 %22, label %23, label %25

23:                                               ; preds = %19
  %24 = load ptr, ptr %2, align 8, !tbaa !3
  call void @attach_phase_attrs(ptr noundef %24, i32 noundef 1)
  store i32 1, ptr %4, align 4
  br label %69

25:                                               ; preds = %19
  %26 = load i8, ptr @Verbose, align 1, !tbaa !71
  %27 = icmp ne i8 %26, 0
  br i1 %27, label %28, label %31

28:                                               ; preds = %25
  %29 = load ptr, ptr @stderr, align 8, !tbaa !122
  %30 = call i32 @fputs(ptr noundef @.str.8, ptr noundef %29)
  br label %31

31:                                               ; preds = %28, %25
  %32 = load ptr, ptr %2, align 8, !tbaa !3
  call void @dot_mincross(ptr noundef %32)
  %33 = load i32, ptr %3, align 4, !tbaa !72
  %34 = icmp eq i32 %33, 2
  br i1 %34, label %35, label %37

35:                                               ; preds = %31
  %36 = load ptr, ptr %2, align 8, !tbaa !3
  call void @attach_phase_attrs(ptr noundef %36, i32 noundef 2)
  store i32 1, ptr %4, align 4
  br label %69

37:                                               ; preds = %31
  %38 = load i8, ptr @Verbose, align 1, !tbaa !71
  %39 = icmp ne i8 %38, 0
  br i1 %39, label %40, label %43

40:                                               ; preds = %37
  %41 = load ptr, ptr @stderr, align 8, !tbaa !122
  %42 = call i32 @fputs(ptr noundef @.str.9, ptr noundef %41)
  br label %43

43:                                               ; preds = %40, %37
  %44 = load ptr, ptr %2, align 8, !tbaa !3
  call void @dot_position(ptr noundef %44)
  %45 = load i32, ptr %3, align 4, !tbaa !72
  %46 = icmp eq i32 %45, 3
  br i1 %46, label %47, label %49

47:                                               ; preds = %43
  %48 = load ptr, ptr %2, align 8, !tbaa !3
  call void @attach_phase_attrs(ptr noundef %48, i32 noundef 2)
  store i32 1, ptr %4, align 4
  br label %69

49:                                               ; preds = %43
  %50 = load ptr, ptr %2, align 8, !tbaa !3
  %51 = getelementptr inbounds nuw %struct.Agobj_s, ptr %50, i32 0, i32 1
  %52 = load ptr, ptr %51, align 8, !tbaa !16
  %53 = getelementptr inbounds nuw %struct.Agraphinfo_t, ptr %52, i32 0, i32 12
  %54 = load i16, ptr %53, align 8, !tbaa !127
  %55 = zext i16 %54 to i32
  %56 = and i32 %55, 16
  %57 = icmp ne i32 %56, 0
  br i1 %57, label %58, label %60

58:                                               ; preds = %49
  %59 = load ptr, ptr %2, align 8, !tbaa !3
  call void @removeFill(ptr noundef %59)
  br label %60

60:                                               ; preds = %58, %49
  %61 = load ptr, ptr %2, align 8, !tbaa !3
  call void @dot_sameports(ptr noundef %61)
  %62 = load ptr, ptr %2, align 8, !tbaa !3
  call void @dot_splines(ptr noundef %62)
  %63 = load ptr, ptr %2, align 8, !tbaa !3
  %64 = call ptr @agget(ptr noundef %63, ptr noundef @.str.10)
  %65 = call zeroext i1 @mapbool(ptr noundef %64)
  br i1 %65, label %66, label %68

66:                                               ; preds = %60
  %67 = load ptr, ptr %2, align 8, !tbaa !3
  call void @dot_compoundEdges(ptr noundef %67)
  br label %68

68:                                               ; preds = %66, %60
  store i32 0, ptr %4, align 4
  br label %69

69:                                               ; preds = %68, %47, %35, %23
  call void @llvm.lifetime.end.p0(i64 4, ptr %3) #12
  %70 = load i32, ptr %4, align 4
  switch i32 %70, label %72 [
    i32 0, label %71
    i32 1, label %71
  ]

71:                                               ; preds = %69, %69
  ret void

72:                                               ; preds = %69
  unreachable
}