; Function Attrs: nounwind uwtable
define internal fastcc void @dotLayout(ptr noundef %0) unnamed_addr #0 {
  %2 = tail call ptr @agattr(ptr noundef %0, i32 noundef 0, ptr noundef nonnull @.str.6, ptr noundef null) #15
  %3 = tail call i32 @late_int(ptr noundef %0, ptr noundef %2, i32 noundef -1, i32 noundef 1) #15
  tail call void @setEdgeType(ptr noundef %0, i32 noundef 10) #15
  tail call void @setAspect(ptr noundef %0) #15
  tail call fastcc void @dot_init_subg(ptr noundef %0, ptr noundef %0)
  tail call void @dot_init_node_edge(ptr noundef %0)
  %4 = load i8, ptr @Verbose, align 1, !tbaa !67
  %.not = icmp eq i8 %4, 0
  br i1 %.not, label %8, label %5

5:                                                ; preds = %1
  %6 = load ptr, ptr @stderr, align 8, !tbaa !39
  %7 = tail call i64 @fwrite(ptr nonnull @.str.7, i64 28, i64 1, ptr %6) #20
  br label %8

8:                                                ; preds = %5, %1
  tail call void @dot_rank(ptr noundef %0) #15
  %9 = icmp eq i32 %3, 1
  br i1 %9, label %10, label %11

10:                                               ; preds = %8
  tail call fastcc void @attach_phase_attrs(ptr noundef %0, i32 noundef 1)
  br label %67

11:                                               ; preds = %8
  %12 = load i8, ptr @Verbose, align 1, !tbaa !67
  %.not21 = icmp eq i8 %12, 0
  br i1 %.not21, label %16, label %13

13:                                               ; preds = %11
  %14 = load ptr, ptr @stderr, align 8, !tbaa !39
  %15 = tail call i64 @fwrite(ptr nonnull @.str.8, i64 32, i64 1, ptr %14) #20
  br label %16

16:                                               ; preds = %13, %11
  tail call void @dot_mincross(ptr noundef %0) #15
  %17 = icmp eq i32 %3, 2
  br i1 %17, label %18, label %19

18:                                               ; preds = %16
  tail call fastcc void @attach_phase_attrs(ptr noundef %0, i32 noundef 2)
  br label %67

19:                                               ; preds = %16
  %20 = load i8, ptr @Verbose, align 1, !tbaa !67
  %.not22 = icmp eq i8 %20, 0
  br i1 %.not22, label %24, label %21

21:                                               ; preds = %19
  %22 = load ptr, ptr @stderr, align 8, !tbaa !39
  %23 = tail call i64 @fwrite(ptr nonnull @.str.9, i64 32, i64 1, ptr %22) #20
  br label %24

24:                                               ; preds = %21, %19
  tail call void @dot_position(ptr noundef %0) #15
  %25 = icmp eq i32 %3, 3
  br i1 %25, label %26, label %27

26:                                               ; preds = %24
  tail call fastcc void @attach_phase_attrs(ptr noundef %0, i32 noundef 2)
  br label %67

27:                                               ; preds = %24
  %28 = getelementptr inbounds nuw i8, ptr %0, i64 16
  %29 = load ptr, ptr %28, align 8, !tbaa !3
  %30 = getelementptr inbounds nuw i8, ptr %29, i64 152
  %31 = load i16, ptr %30, align 8, !tbaa !139
  %32 = and i16 %31, 16
  %.not23 = icmp eq i16 %32, 0
  br i1 %.not23, label %removeFill.exit, label %33

33:                                               ; preds = %27
  %34 = tail call ptr @agsubg(ptr noundef nonnull %0, ptr noundef nonnull @.str.14, i32 noundef 0) #15
  %.not.i = icmp eq ptr %34, null
  br i1 %.not.i, label %removeFill.exit, label %35

35:                                               ; preds = %33
  %36 = tail call ptr @agfstnode(ptr noundef nonnull %34) #15
  %.not1720.i = icmp eq ptr %36, null
  br i1 %.not1720.i, label %._crit_edge.i, label %.lr.ph.i

.lr.ph.i:                                         ; preds = %35, %remove_from_rank.exit.i
  %.021.i = phi ptr [ %37, %remove_from_rank.exit.i ], [ %36, %35 ]
  %37 = tail call ptr @agnxtnode(ptr noundef nonnull %34, ptr noundef nonnull %.021.i) #15
  tail call void @delete_fast_node(ptr noundef nonnull %0, ptr noundef nonnull %.021.i) #15
  %38 = getelementptr inbounds nuw i8, ptr %.021.i, i64 16
  %39 = load ptr, ptr %38, align 8, !tbaa !3
  %40 = getelementptr inbounds nuw i8, ptr %39, i64 360
  %41 = load i32, ptr %40, align 8, !tbaa !140
  %42 = load ptr, ptr %28, align 8, !tbaa !3
  %43 = getelementptr inbounds nuw i8, ptr %42, i64 264
  %44 = load ptr, ptr %43, align 8, !tbaa !99
  %45 = sext i32 %41 to i64
  %46 = getelementptr inbounds %struct.rank_t, ptr %44, i64 %45
  %47 = load i32, ptr %46, align 8, !tbaa !141
  %48 = icmp sgt i32 %47, 0
  br i1 %48, label %.lr.ph.i.i, label %remove_from_rank.exit.i

.lr.ph.i.i:                                       ; preds = %.lr.ph.i
  %49 = getelementptr inbounds nuw i8, ptr %46, i64 8
  %50 = load ptr, ptr %49, align 8, !tbaa !142
  %wide.trip.count.i.i = zext nneg i32 %47 to i64
  br label %51

51:                                               ; preds = %61, %.lr.ph.i.i
  %indvars.iv37.i.i = phi i64 [ 1, %.lr.ph.i.i ], [ %indvars.iv.next38.i.i, %61 ]
  %indvars.iv.i.i = phi i64 [ 0, %.lr.ph.i.i ], [ %indvars.iv.next.i.i, %61 ]
  %52 = getelementptr inbounds nuw ptr, ptr %50, i64 %indvars.iv.i.i
  %53 = load ptr, ptr %52, align 8, !tbaa !143
  %54 = icmp eq ptr %53, %.021.i
  br i1 %54, label %.preheader.i.i, label %61

.preheader.i.i:                                   ; preds = %51
  %55 = trunc nuw nsw i64 %indvars.iv.i.i to i32
  %.129.i.i = add nuw nsw i32 %55, 1
  %56 = icmp slt i32 %.129.i.i, %47
  %57 = add nsw i32 %47, -1
  br i1 %56, label %.lr.ph32.preheader.i.i, label %._crit_edge.i.i

.lr.ph32.preheader.i.i:                           ; preds = %.preheader.i.i
  %wide.trip.count48.i.i = zext i32 %57 to i64
  br label %.lr.ph32.i.i

.lr.ph32.i.i:                                     ; preds = %.lr.ph32.i.i, %.lr.ph32.preheader.i.i
  %indvars.iv43.i.i = phi i64 [ %indvars.iv.i.i, %.lr.ph32.preheader.i.i ], [ %indvars.iv.next44.i.i, %.lr.ph32.i.i ]
  %indvars.iv40.i.i = phi i64 [ %indvars.iv37.i.i, %.lr.ph32.preheader.i.i ], [ %indvars.iv.next41.i.i, %.lr.ph32.i.i ]
  %58 = getelementptr inbounds nuw ptr, ptr %50, i64 %indvars.iv40.i.i
  %59 = load ptr, ptr %58, align 8, !tbaa !143
  %60 = getelementptr inbounds nuw ptr, ptr %50, i64 %indvars.iv43.i.i
  store ptr %59, ptr %60, align 8, !tbaa !143
  %indvars.iv.next41.i.i = add nuw nsw i64 %indvars.iv40.i.i, 1
  %indvars.iv.next44.i.i = add nuw nsw i64 %indvars.iv43.i.i, 1
  %exitcond49.not.i.i = icmp eq i64 %indvars.iv.next44.i.i, %wide.trip.count48.i.i
  br i1 %exitcond49.not.i.i, label %._crit_edge.i.i, label %.lr.ph32.i.i, !llvm.loop !144

._crit_edge.i.i:                                  ; preds = %.lr.ph32.i.i, %.preheader.i.i
  store i32 %57, ptr %46, align 8, !tbaa !141
  br label %remove_from_rank.exit.i

61:                                               ; preds = %51
  %indvars.iv.next.i.i = add nuw nsw i64 %indvars.iv.i.i, 1
  %exitcond.not.i.i = icmp eq i64 %indvars.iv.next.i.i, %wide.trip.count.i.i
  %indvars.iv.next38.i.i = add nuw nsw i64 %indvars.iv37.i.i, 1
  br i1 %exitcond.not.i.i, label %remove_from_rank.exit.i, label %51, !llvm.loop !145

remove_from_rank.exit.i:                          ; preds = %61, %._crit_edge.i.i, %.lr.ph.i
  tail call fastcc void @dot_cleanup_node(ptr noundef %.021.i)
  %62 = tail call i32 @agdelnode(ptr noundef nonnull %0, ptr noundef nonnull %.021.i) #15
  %.not17.i = icmp eq ptr %37, null
  br i1 %.not17.i, label %._crit_edge.i, label %.lr.ph.i, !llvm.loop !146

._crit_edge.i:                                    ; preds = %remove_from_rank.exit.i, %35
  %63 = tail call i32 @agdelsubg(ptr noundef nonnull %0, ptr noundef nonnull %34) #15
  br label %removeFill.exit

removeFill.exit:                                  ; preds = %._crit_edge.i, %33, %27
  tail call void @dot_sameports(ptr noundef nonnull %0) #15
  tail call void @dot_splines(ptr noundef nonnull %0) #15
  %64 = tail call ptr @agget(ptr noundef nonnull %0, ptr noundef nonnull @.str.10) #15
  %65 = tail call zeroext i1 @mapbool(ptr noundef %64) #15
  br i1 %65, label %66, label %67

66:                                               ; preds = %removeFill.exit
  tail call void @dot_compoundEdges(ptr noundef nonnull %0) #15
  br label %67

67:                                               ; preds = %removeFill.exit, %66, %26, %18, %10
  ret void
}